target datalayout = "e-m:e-p270:32:32-p271:32:32-p272:64:64-i64:64-i128:128-f80:128-n8:16:32:64-S128"
target triple = "x86_64-pc-linux-gnu"

%struct._9p_hashkey = type { i32, i16, i32 }
%struct._packet_info = type { ptr, ptr, i32, i32, %struct.nstime_t, %struct.nstime_t, %struct.nstime_t, i8, ptr, ptr, ptr, ptr, %struct._address, %struct._address, %struct._address, %struct._address, %struct._address, %struct._address, i32, ptr, i8, [3 x i8], %struct.anon, i32, i32, i32, i32, ptr, i8, ptr, ptr, i16, i16, i32, i32, i16, i32, i32, ptr, ptr, ptr, i8, i8, i16, i16, i16, i32, i16, i16, ptr, ptr, ptr, ptr, ptr, i32, i32 }
%struct.nstime_t = type { i64, i32 }
%struct._address = type { i32, i32, ptr, ptr }
%struct.anon = type { i8, [3 x i8] }
%struct._frame_data = type <{ i32, i32, i32, i32, i32, [4 x i8], i64, ptr, ptr, ptr, i8, i16, [5 x i8], %struct.nstime_t, %struct.nstime_t, i32, i32 }>
%struct.conversation = type { ptr, ptr, ptr, i32, i32, i32, ptr, ptr, i32, ptr }

@_9p_hashtable = internal global ptr null, align 8

; Function Attrs: null_pointer_is_valid sspstrong uwtable
define internal void @_9p_hash_free(ptr noundef %0, i16 noundef zeroext %1, i32 noundef %2) #0 {
  %4 = alloca ptr, align 8
  %5 = alloca i16, align 2
  %6 = alloca i32, align 4
  %7 = alloca %struct._9p_hashkey, align 4
  %8 = alloca ptr, align 8
  store ptr %0, ptr %4, align 8
  store i16 %1, ptr %5, align 2
  store i32 %2, ptr %6, align 4
  call void @llvm.lifetime.start.p0(i64 12, ptr %7) #7
  call void @llvm.lifetime.start.p0(i64 8, ptr %8) #7
  %9 = load ptr, ptr %4, align 8
  %10 = call ptr @find_or_create_conversation(ptr noundef %9)
  store ptr %10, ptr %8, align 8
  %11 = load ptr, ptr %8, align 8
  %12 = getelementptr inbounds nuw %struct.conversation, ptr %11, i32 0, i32 3
  %13 = load i32, ptr %12, align 8
  %14 = getelementptr inbounds nuw %struct._9p_hashkey, ptr %7, i32 0, i32 0
  store i32 %13, ptr %14, align 4
  %15 = load i16, ptr %5, align 2
  %16 = getelementptr inbounds nuw %struct._9p_hashkey, ptr %7, i32 0, i32 1
  store i16 %15, ptr %16, align 4
  %17 = load i32, ptr %6, align 4
  %18 = getelementptr inbounds nuw %struct._9p_hashkey, ptr %7, i32 0, i32 2
  store i32 %17, ptr %18, align 4
  %19 = load ptr, ptr @_9p_hashtable, align 8
  %20 = call ptr @wmem_map_remove(ptr noundef %19, ptr noundef %7)
  call void @llvm.lifetime.end.p0(i64 8, ptr %8) #7
  call void @llvm.lifetime.end.p0(i64 12, ptr %7) #7
  ret void
}

; Function Attrs: inlinehint null_pointer_is_valid sspstrong uwtable
define internal void @conv_free_tag(ptr noundef %0, i16 noundef zeroext %1) #5 {
  %3 = alloca ptr, align 8
  %4 = alloca i16, align 2
  store ptr %0, ptr %3, align 8
  store i16 %1, ptr %4, align 2
  %5 = load ptr, ptr %3, align 8
  %6 = getelementptr inbounds nuw %struct._packet_info, ptr %5, i32 0, i32 8
  %7 = load ptr, ptr %6, align 8
  %8 = getelementptr inbounds nuw %struct._frame_data, ptr %7, i32 0, i32 11
  %9 = load i16, ptr %8, align 1
  %10 = lshr i16 %9, 3
  %11 = and i16 %10, 1
  %12 = zext i16 %11 to i32
  %13 = icmp ne i32 %12, 0
  br i1 %13, label %18, label %14

14:                                               ; preds = %2
  %15 = load i16, ptr %4, align 2
  %16 = zext i16 %15 to i32
  %17 = icmp eq i32 %16, 65535
  br i1 %17, label %18, label %19

18:                                               ; preds = %14, %2
  br label %22

19:                                               ; preds = %14
  %20 = load ptr, ptr %3, align 8
  %21 = load i16, ptr %4, align 2
  call void @_9p_hash_free(ptr noundef %20, i16 noundef zeroext %21, i32 noundef -1)
  br label %22

22:                                               ; preds = %19, %18
  ret void
}