; Function Attrs: inlinehint null_pointer_is_valid sspstrong uwtable
define internal fastcc void @conv_free_tag(ptr noundef %0, i16 noundef zeroext %1) unnamed_addr #5 {
  %3 = alloca %struct._9p_hashkey, align 4
  %4 = getelementptr inbounds nuw i8, ptr %0, i64 80
  %5 = load ptr, ptr %4, align 8
  %6 = getelementptr inbounds nuw i8, ptr %5, i64 57
  %7 = load i16, ptr %6, align 1
  %8 = and i16 %7, 8
  %9 = icmp ne i16 %8, 0
  %10 = icmp eq i16 %1, -1
  %or.cond = or i1 %10, %9
  br i1 %or.cond, label %19, label %11

11:                                               ; preds = %2
  call void @llvm.lifetime.start.p0(i64 12, ptr nonnull %3) #8
  %12 = tail call ptr @find_or_create_conversation(ptr noundef %0)
  %13 = getelementptr inbounds nuw i8, ptr %12, i64 24
  %14 = load i32, ptr %13, align 8
  store i32 %14, ptr %3, align 4
  %15 = getelementptr inbounds nuw i8, ptr %3, i64 4
  store i16 %1, ptr %15, align 4
  %16 = getelementptr inbounds nuw i8, ptr %3, i64 8
  store i32 -1, ptr %16, align 4
  %17 = load ptr, ptr @_9p_hashtable, align 8
  %18 = call ptr @wmem_map_remove(ptr noundef %17, ptr noundef nonnull %3)
  call void @llvm.lifetime.end.p0(i64 12, ptr nonnull %3) #8
  br label %19

19:                                               ; preds = %2, %11
  ret void
}